; ModuleID = 'source-C-CXX/49/1293.cpp'
source_filename = "source-C-CXX/49/1293.cpp"
target datalayout = "e-m:e-p270:32:32-p271:32:32-p272:64:64-i64:64-f80:128-n8:16:32:64-S128"
target triple = "x86_64-pc-linux-gnu"

%"class.std::ios_base::Init" = type { i8 }
%"class.std::basic_istream" = type { i32 (...)**, i64, %"class.std::basic_ios" }
%"class.std::basic_ios" = type { %"class.std::ios_base", %"class.std::basic_ostream"*, i8, i8, %"class.std::basic_streambuf"*, %"class.std::ctype"*, %"class.std::num_put"*, %"class.std::num_get"* }
%"class.std::ios_base" = type { i32 (...)**, i64, i64, i32, i32, i32, %"struct.std::ios_base::_Callback_list"*, %"struct.std::ios_base::_Words", [8 x %"struct.std::ios_base::_Words"], i32, %"struct.std::ios_base::_Words"*, %"class.std::locale" }
%"struct.std::ios_base::_Callback_list" = type { %"struct.std::ios_base::_Callback_list"*, void (i32, %"class.std::ios_base"*, i32)*, i32, i32 }
%"struct.std::ios_base::_Words" = type { i8*, i64 }
%"class.std::locale" = type { %"class.std::locale::_Impl"* }
%"class.std::locale::_Impl" = type { i32, %"class.std::locale::facet"**, i64, %"class.std::locale::facet"**, i8** }
%"class.std::locale::facet" = type <{ i32 (...)**, i32, [4 x i8] }>
%"class.std::basic_ostream" = type { i32 (...)**, %"class.std::basic_ios" }
%"class.std::basic_streambuf" = type { i32 (...)**, i8*, i8*, i8*, i8*, i8*, i8*, %"class.std::locale" }
%"class.std::ctype" = type <{ %"class.std::locale::facet.base", [4 x i8], %struct.__locale_struct*, i8, [7 x i8], i32*, i32*, i16*, i8, [256 x i8], [256 x i8], i8, [6 x i8] }>
%"class.std::locale::facet.base" = type <{ i32 (...)**, i32 }>
%struct.__locale_struct = type { [13 x %struct.__locale_data*], i16*, i32*, i32*, [13 x i8*] }
%struct.__locale_data = type opaque
%"class.std::num_put" = type { %"class.std::locale::facet.base", [4 x i8] }
%"class.std::num_get" = type { %"class.std::locale::facet.base", [4 x i8] }

@_ZStL8__ioinit = internal global %"class.std::ios_base::Init" zeroinitializer, align 1
@__dso_handle = external hidden global i8
@__const.main.date = private unnamed_addr constant [12 x i32] [i32 0, i32 31, i32 28, i32 31, i32 30, i32 31, i32 30, i32 31, i32 31, i32 30, i32 31, i32 30], align 16
@_ZSt3cin = external global %"class.std::basic_istream", align 8
@_ZSt4cout = external global %"class.std::basic_ostream", align 8
@llvm.global_ctors = appending global [1 x { i32, void ()*, i8* }] [{ i32, void ()*, i8* } { i32 65535, void ()* @_GLOBAL__sub_I_1293.cpp, i8* null }]

declare void @_ZNSt8ios_base4InitC1Ev(%"class.std::ios_base::Init"* nonnull align 1 dereferenceable(1)) unnamed_addr #0

; Function Attrs: nounwind
declare void @_ZNSt8ios_base4InitD1Ev(%"class.std::ios_base::Init"* nonnull align 1 dereferenceable(1)) unnamed_addr #1

; Function Attrs: nofree nounwind
declare i32 @__cxa_atexit(void (i8*)*, i8*, i8*) local_unnamed_addr #2

; Function Attrs: mustprogress norecurse sspstrong uwtable
define dso_local i32 @main() local_unnamed_addr #3 {
  %1 = alloca i32, align 4
  %2 = bitcast i32* %1 to i8*
  call void @llvm.lifetime.start.p0i8(i64 4, i8* nonnull %2) #7
  %3 = call nonnull align 8 dereferenceable(16) %"class.std::basic_istream"* @_ZNSirsERi(%"class.std::basic_istream"* nonnull align 8 dereferenceable(16) @_ZSt3cin, i32* nonnull align 4 dereferenceable(4) %1)
  br label %4

4:                                                ; preds = %0, %88
  %5 = phi i64 [ 0, %0 ], [ %89, %88 ]
  %6 = phi i32 [ 0, %0 ], [ %9, %88 ]
  %7 = getelementptr inbounds [12 x i32], [12 x i32]* @__const.main.date, i64 0, i64 %5
  %8 = load i32, i32* %7, align 4, !tbaa !5
  %9 = add nsw i32 %8, %6
  %10 = load i32, i32* %1, align 4, !tbaa !5
  %11 = icmp slt i32 %10, 6
  br i1 %11, label %12, label %49

12:                                               ; preds = %4
  %13 = add nsw i32 %9, %10
  %14 = add nsw i32 %13, 7
  %15 = srem i32 %14, 7
  %16 = icmp eq i32 %15, 0
  br i1 %16, label %17, label %88

17:                                               ; preds = %12
  %18 = trunc i64 %5 to i32
  %19 = add i32 %18, 1
  %20 = call nonnull align 8 dereferenceable(8) %"class.std::basic_ostream"* @_ZNSolsEi(%"class.std::basic_ostream"* nonnull align 8 dereferenceable(8) @_ZSt4cout, i32 %19)
  %21 = bitcast %"class.std::basic_ostream"* %20 to i8**
  %22 = load i8*, i8** %21, align 8, !tbaa !9
  %23 = getelementptr i8, i8* %22, i64 -24
  %24 = bitcast i8* %23 to i64*
  %25 = load i64, i64* %24, align 8
  %26 = bitcast %"class.std::basic_ostream"* %20 to i8*
  %27 = add nsw i64 %25, 240
  %28 = getelementptr inbounds i8, i8* %26, i64 %27
  %29 = bitcast i8* %28 to %"class.std::ctype"**
  %30 = load %"class.std::ctype"*, %"class.std::ctype"** %29, align 8, !tbaa !11
  %31 = icmp eq %"class.std::ctype"* %30, null
  br i1 %31, label %32, label %33

32:                                               ; preds = %17
  call void @_ZSt16__throw_bad_castv() #8
  unreachable

33:                                               ; preds = %17
  %34 = getelementptr inbounds %"class.std::ctype", %"class.std::ctype"* %30, i64 0, i32 8
  %35 = load i8, i8* %34, align 8, !tbaa !15
  %36 = icmp eq i8 %35, 0
  br i1 %36, label %40, label %37

37:                                               ; preds = %33
  %38 = getelementptr inbounds %"class.std::ctype", %"class.std::ctype"* %30, i64 0, i32 9, i64 10
  %39 = load i8, i8* %38, align 1, !tbaa !17
  br label %46

40:                                               ; preds = %33
  call void @_ZNKSt5ctypeIcE13_M_widen_initEv(%"class.std::ctype"* nonnull align 8 dereferenceable(570) %30)
  %41 = bitcast %"class.std::ctype"* %30 to i8 (%"class.std::ctype"*, i8)***
  %42 = load i8 (%"class.std::ctype"*, i8)**, i8 (%"class.std::ctype"*, i8)*** %41, align 8, !tbaa !9
  %43 = getelementptr inbounds i8 (%"class.std::ctype"*, i8)*, i8 (%"class.std::ctype"*, i8)** %42, i64 6
  %44 = load i8 (%"class.std::ctype"*, i8)*, i8 (%"class.std::ctype"*, i8)** %43, align 8
  %45 = call signext i8 %44(%"class.std::ctype"* nonnull align 8 dereferenceable(570) %30, i8 signext 10)
  br label %46

46:                                               ; preds = %37, %40
  %47 = phi i8 [ %39, %37 ], [ %45, %40 ]
  %48 = call nonnull align 8 dereferenceable(8) %"class.std::basic_ostream"* @_ZNSo3putEc(%"class.std::basic_ostream"* nonnull align 8 dereferenceable(8) %20, i8 signext %47)
  br label %85

49:                                               ; preds = %4
  %50 = add nsw i32 %10, %9
  %51 = srem i32 %50, 7
  %52 = icmp eq i32 %51, 0
  br i1 %52, label %53, label %88

53:                                               ; preds = %49
  %54 = trunc i64 %5 to i32
  %55 = add i32 %54, 1
  %56 = call nonnull align 8 dereferenceable(8) %"class.std::basic_ostream"* @_ZNSolsEi(%"class.std::basic_ostream"* nonnull align 8 dereferenceable(8) @_ZSt4cout, i32 %55)
  %57 = bitcast %"class.std::basic_ostream"* %56 to i8**
  %58 = load i8*, i8** %57, align 8, !tbaa !9
  %59 = getelementptr i8, i8* %58, i64 -24
  %60 = bitcast i8* %59 to i64*
  %61 = load i64, i64* %60, align 8
  %62 = bitcast %"class.std::basic_ostream"* %56 to i8*
  %63 = add nsw i64 %61, 240
  %64 = getelementptr inbounds i8, i8* %62, i64 %63
  %65 = bitcast i8* %64 to %"class.std::ctype"**
  %66 = load %"class.std::ctype"*, %"class.std::ctype"** %65, align 8, !tbaa !11
  %67 = icmp eq %"class.std::ctype"* %66, null
  br i1 %67, label %68, label %69

68:                                               ; preds = %53
  call void @_ZSt16__throw_bad_castv() #8
  unreachable

69:                                               ; preds = %53
  %70 = getelementptr inbounds %"class.std::ctype", %"class.std::ctype"* %66, i64 0, i32 8
  %71 = load i8, i8* %70, align 8, !tbaa !15
  %72 = icmp eq i8 %71, 0
  br i1 %72, label %76, label %73

73:                                               ; preds = %69
  %74 = getelementptr inbounds %"class.std::ctype", %"class.std::ctype"* %66, i64 0, i32 9, i64 10
  %75 = load i8, i8* %74, align 1, !tbaa !17
  br label %82

76:                                               ; preds = %69
  call void @_ZNKSt5ctypeIcE13_M_widen_initEv(%"class.std::ctype"* nonnull align 8 dereferenceable(570) %66)
  %77 = bitcast %"class.std::ctype"* %66 to i8 (%"class.std::ctype"*, i8)***
  %78 = load i8 (%"class.std::ctype"*, i8)**, i8 (%"class.std::ctype"*, i8)*** %77, align 8, !tbaa !9
  %79 = getelementptr inbounds i8 (%"class.std::ctype"*, i8)*, i8 (%"class.std::ctype"*, i8)** %78, i64 6
  %80 = load i8 (%"class.std::ctype"*, i8)*, i8 (%"class.std::ctype"*, i8)** %79, align 8
  %81 = call signext i8 %80(%"class.std::ctype"* nonnull align 8 dereferenceable(570) %66, i8 signext 10)
  br label %82

82:                                               ; preds = %73, %76
  %83 = phi i8 [ %75, %73 ], [ %81, %76 ]
  %84 = call nonnull align 8 dereferenceable(8) %"class.std::basic_ostream"* @_ZNSo3putEc(%"class.std::basic_ostream"* nonnull align 8 dereferenceable(8) %56, i8 signext %83)
  br label %85

85:                                               ; preds = %82, %46
  %86 = phi %"class.std::basic_ostream"* [ %48, %46 ], [ %84, %82 ]
  %87 = call nonnull align 8 dereferenceable(8) %"class.std::basic_ostream"* @_ZNSo5flushEv(%"class.std::basic_ostream"* nonnull align 8 dereferenceable(8) %86)
  br label %88

88:                                               ; preds = %85, %12, %49
  %89 = add nuw nsw i64 %5, 1
  %90 = icmp eq i64 %89, 12
  br i1 %90, label %91, label %4, !llvm.loop !18

91:                                               ; preds = %88
  call void @llvm.lifetime.end.p0i8(i64 4, i8* nonnull %2) #7
  ret i32 0
}

; Function Attrs: argmemonly mustprogress nofree nosync nounwind willreturn
declare void @llvm.lifetime.start.p0i8(i64 immarg, i8* nocapture) #4

declare nonnull align 8 dereferenceable(16) %"class.std::basic_istream"* @_ZNSirsERi(%"class.std::basic_istream"* nonnull align 8 dereferenceable(16), i32* nonnull align 4 dereferenceable(4)) local_unnamed_addr #0

declare nonnull align 8 dereferenceable(8) %"class.std::basic_ostream"* @_ZNSolsEi(%"class.std::basic_ostream"* nonnull align 8 dereferenceable(8), i32) local_unnamed_addr #0

; Function Attrs: argmemonly mustprogress nofree nosync nounwind willreturn
declare void @llvm.lifetime.end.p0i8(i64 immarg, i8* nocapture) #4

declare nonnull align 8 dereferenceable(8) %"class.std::basic_ostream"* @_ZNSo3putEc(%"class.std::basic_ostream"* nonnull align 8 dereferenceable(8), i8 signext) local_unnamed_addr #0

declare nonnull align 8 dereferenceable(8) %"class.std::basic_ostream"* @_ZNSo5flushEv(%"class.std::basic_ostream"* nonnull align 8 dereferenceable(8)) local_unnamed_addr #0

; Function Attrs: noreturn
declare void @_ZSt16__throw_bad_castv() local_unnamed_addr #5

declare void @_ZNKSt5ctypeIcE13_M_widen_initEv(%"class.std::ctype"* nonnull align 8 dereferenceable(570)) local_unnamed_addr #0

; Function Attrs: sspstrong uwtable
define internal void @_GLOBAL__sub_I_1293.cpp() #6 section ".text.startup" {
  tail call void @_ZNSt8ios_base4InitC1Ev(%"class.std::ios_base::Init"* nonnull align 1 dereferenceable(1) @_ZStL8__ioinit)
  %1 = tail call i32 @__cxa_atexit(void (i8*)* bitcast (void (%"class.std::ios_base::Init"*)* @_ZNSt8ios_base4InitD1Ev to void (i8*)*), i8* getelementptr inbounds (%"class.std::ios_base::Init", %"class.std::ios_base::Init"* @_ZStL8__ioinit, i64 0, i32 0), i8* nonnull @__dso_handle) #7
  ret void
}


!llvm.module.flags = !{!0, !1, !2, !3}
!llvm.ident = !{!4}

!0 = !{i32 1, !"wchar_size", i32 4}
!1 = !{i32 7, !"PIC Level", i32 2}
!2 = !{i32 7, !"PIE Level", i32 2}
!3 = !{i32 7, !"uwtable", i32 1}
!4 = !{!"clang version 13.0.0"}
!5 = !{!6, !6, i64 0}
!6 = !{!"int", !7, i64 0}
!7 = !{!"omnipotent char", !8, i64 0}
!8 = !{!"Simple C++ TBAA"}
!9 = !{!10, !10, i64 0}
!10 = !{!"vtable pointer", !8, i64 0}
!11 = !{!12, !13, i64 240}
!12 = !{!"_ZTSSt9basic_iosIcSt11char_traitsIcEE", !13, i64 216, !7, i64 224, !14, i64 225, !13, i64 232, !13, i64 240, !13, i64 248, !13, i64 256}
!13 = !{!"any pointer", !7, i64 0}
!14 = !{!"bool", !7, i64 0}
!15 = !{!16, !7, i64 56}
!16 = !{!"_ZTSSt5ctypeIcE", !13, i64 16, !14, i64 24, !13, i64 32, !13, i64 40, !13, i64 48, !7, i64 56, !7, i64 57, !7, i64 313, !7, i64 569}
!17 = !{!7, !7, i64 0}
!18 = distinct !{!18, !19}
!19 = !{!"llvm.loop.mustprogress"}
